target datalayout = "e-m:e-p270:32:32-p271:32:32-p272:64:64-i64:64-i128:128-f80:128-n8:16:32:64-S128"
target triple = "x86_64-pc-linux-gnu"

%"class.std::__cxx11::basic_string" = type { %"struct.std::__cxx11::basic_string<char>::_Alloc_hider", i64, %union.anon }
%"struct.std::__cxx11::basic_string<char>::_Alloc_hider" = type { ptr }
%union.anon = type { i64, [8 x i8] }
%"class.std::_Function_base" = type { %"union.std::_Any_data", ptr }
%"union.std::_Any_data" = type { %"union.std::_Nocopy_types" }
%"union.std::_Nocopy_types" = type { { i64, i64 } }
%class.cmInstallCommandArguments = type { %class.cmArgumentParser, %"class.std::__cxx11::basic_string", %"class.std::__cxx11::basic_string", %"class.std::__cxx11::basic_string", i8, %"class.std::__cxx11::basic_string", %"struct.ArgumentParser::MaybeEmpty", %"struct.ArgumentParser::MaybeEmpty", i8, i8, i8, %"class.std::__cxx11::basic_string", %"class.std::__cxx11::basic_string", %"class.std::__cxx11::basic_string", ptr, %"class.std::__cxx11::basic_string" }
%class.cmArgumentParser = type { %"class.ArgumentParser::Base" }
%"class.ArgumentParser::Base" = type { %"class.ArgumentParser::ActionMap" }
%"class.ArgumentParser::ActionMap" = type { %"class.ArgumentParser::KeywordActionMap", %"class.std::function", %"class.std::function", %"class.ArgumentParser::PositionActionMap" }
%"class.ArgumentParser::KeywordActionMap" = type { %"class.std::vector" }
%"class.std::vector" = type { %"struct.std::_Vector_base" }
%"struct.std::_Vector_base" = type { %"struct.std::_Vector_base<std::pair<std::basic_string_view<char>, std::function<void (ArgumentParser::Instance &)>>, std::allocator<std::pair<std::basic_string_view<char>, std::function<void (ArgumentParser::Instance &)>>>>::_Vector_impl" }
%"struct.std::_Vector_base<std::pair<std::basic_string_view<char>, std::function<void (ArgumentParser::Instance &)>>, std::allocator<std::pair<std::basic_string_view<char>, std::function<void (ArgumentParser::Instance &)>>>>::_Vector_impl" = type { %"struct.std::_Vector_base<std::pair<std::basic_string_view<char>, std::function<void (ArgumentParser::Instance &)>>, std::allocator<std::pair<std::basic_string_view<char>, std::function<void (ArgumentParser::Instance &)>>>>::_Vector_impl_data" }
%"struct.std::_Vector_base<std::pair<std::basic_string_view<char>, std::function<void (ArgumentParser::Instance &)>>, std::allocator<std::pair<std::basic_string_view<char>, std::function<void (ArgumentParser::Instance &)>>>>::_Vector_impl_data" = type { ptr, ptr, ptr }
%"class.std::function" = type { %"class.std::_Function_base", ptr }
%"class.ArgumentParser::PositionActionMap" = type { %"class.std::vector.3" }
%"class.std::vector.3" = type { %"struct.std::_Vector_base.4" }
%"struct.std::_Vector_base.4" = type { %"struct.std::_Vector_base<std::pair<unsigned long, std::function<void (ArgumentParser::Instance &, unsigned long, std::basic_string_view<char>)>>, std::allocator<std::pair<unsigned long, std::function<void (ArgumentParser::Instance &, unsigned long, std::basic_string_view<char>)>>>>::_Vector_impl" }
%"struct.std::_Vector_base<std::pair<unsigned long, std::function<void (ArgumentParser::Instance &, unsigned long, std::basic_string_view<char>)>>, std::allocator<std::pair<unsigned long, std::function<void (ArgumentParser::Instance &, unsigned long, std::basic_string_view<char>)>>>>::_Vector_impl" = type { %"struct.std::_Vector_base<std::pair<unsigned long, std::function<void (ArgumentParser::Instance &, unsigned long, std::basic_string_view<char>)>>, std::allocator<std::pair<unsigned long, std::function<void (ArgumentParser::Instance &, unsigned long, std::basic_string_view<char>)>>>>::_Vector_impl_data" }
%"struct.std::_Vector_base<std::pair<unsigned long, std::function<void (ArgumentParser::Instance &, unsigned long, std::basic_string_view<char>)>>, std::allocator<std::pair<unsigned long, std::function<void (ArgumentParser::Instance &, unsigned long, std::basic_string_view<char>)>>>>::_Vector_impl_data" = type { ptr, ptr, ptr }
%"struct.ArgumentParser::MaybeEmpty" = type { %"class.std::vector.8" }
%"class.std::vector.8" = type { %"struct.std::_Vector_base.9" }
%"struct.std::_Vector_base.9" = type { %"struct.std::_Vector_base<std::__cxx11::basic_string<char>, std::allocator<std::__cxx11::basic_string<char>>>::_Vector_impl" }
%"struct.std::_Vector_base<std::__cxx11::basic_string<char>, std::allocator<std::__cxx11::basic_string<char>>>::_Vector_impl" = type { %"struct.std::_Vector_base<std::__cxx11::basic_string<char>, std::allocator<std::__cxx11::basic_string<char>>>::_Vector_impl_data" }
%"struct.std::_Vector_base<std::__cxx11::basic_string<char>, std::allocator<std::__cxx11::basic_string<char>>>::_Vector_impl_data" = type { ptr, ptr, ptr }

@_ZN25cmInstallCommandArguments11EmptyStringB5cxx11E = dso_local global %"class.std::__cxx11::basic_string" zeroinitializer, align 8

; Function Attrs: mustprogress nounwind uwtable
define available_externally noundef i64 @_ZNKSt7__cxx1112basic_stringIcSt11char_traitsIcESaIcEE4sizeEv(ptr noundef nonnull align 8 dereferenceable(32) %0) #6 align 2 {
  %2 = alloca ptr, align 8
  store ptr %0, ptr %2, align 8, !tbaa !18
  %3 = load ptr, ptr %2, align 8
  %4 = getelementptr inbounds nuw %"class.std::__cxx11::basic_string", ptr %3, i32 0, i32 1
  %5 = load i64, ptr %4, align 8, !tbaa !224
  ret i64 %5
}

; Function Attrs: mustprogress nounwind uwtable
define available_externally noundef zeroext i1 @_ZNKSt7__cxx1112basic_stringIcSt11char_traitsIcESaIcEE5emptyEv(ptr noundef nonnull align 8 dereferenceable(32) %0) #6 align 2 {
  %2 = alloca ptr, align 8
  store ptr %0, ptr %2, align 8, !tbaa !18
  %3 = load ptr, ptr %2, align 8
  %4 = call noundef i64 @_ZNKSt7__cxx1112basic_stringIcSt11char_traitsIcESaIcEE4sizeEv(ptr noundef nonnull align 8 dereferenceable(32) %3) #3
  %5 = icmp eq i64 %4, 0
  ret i1 %5
}

; Function Attrs: mustprogress uwtable
define dso_local noundef nonnull align 8 dereferenceable(32) ptr @_ZNK25cmInstallCommandArguments9GetRenameB5cxx11Ev(ptr noundef nonnull align 8 dereferenceable(440) %0) #5 align 2 {
  %2 = alloca ptr, align 8
  %3 = alloca ptr, align 8
  store ptr %0, ptr %3, align 8, !tbaa !20
  %4 = load ptr, ptr %3, align 8
  %5 = getelementptr inbounds nuw %class.cmInstallCommandArguments, ptr %4, i32 0, i32 5
  %6 = call noundef zeroext i1 @_ZNKSt7__cxx1112basic_stringIcSt11char_traitsIcESaIcEE5emptyEv(ptr noundef nonnull align 8 dereferenceable(32) %5) #3
  br i1 %6, label %9, label %7

7:                                                ; preds = %1
  %8 = getelementptr inbounds nuw %class.cmInstallCommandArguments, ptr %4, i32 0, i32 5
  store ptr %8, ptr %2, align 8
  br label %18

9:                                                ; preds = %1
  %10 = getelementptr inbounds nuw %class.cmInstallCommandArguments, ptr %4, i32 0, i32 14
  %11 = load ptr, ptr %10, align 8, !tbaa !55
  %12 = icmp ne ptr %11, null
  br i1 %12, label %13, label %17

13:                                               ; preds = %9
  %14 = getelementptr inbounds nuw %class.cmInstallCommandArguments, ptr %4, i32 0, i32 14
  %15 = load ptr, ptr %14, align 8, !tbaa !55
  %16 = call noundef nonnull align 8 dereferenceable(32) ptr @_ZNK25cmInstallCommandArguments9GetRenameB5cxx11Ev(ptr noundef nonnull align 8 dereferenceable(440) %15)
  store ptr %16, ptr %2, align 8
  br label %18

17:                                               ; preds = %9
  store ptr @_ZN25cmInstallCommandArguments11EmptyStringB5cxx11E, ptr %2, align 8
  br label %18

18:                                               ; preds = %17, %13, %7
  %19 = load ptr, ptr %2, align 8
  ret ptr %19
}